; Function Attrs: mustprogress nounwind uwtable
define dso_local void @_ZN5clang8consumed16ConsumedStateMap16clearTemporariesEv(ptr noundef nonnull align 8 dereferenceable(64) %0) local_unnamed_addr #1 align 2 {
  %2 = getelementptr inbounds nuw i8, ptr %0, i64 40
  %3 = getelementptr inbounds nuw i8, ptr %0, i64 48
  %4 = load i32, ptr %3, align 8
  %5 = icmp eq i32 %4, 0
  %6 = getelementptr inbounds nuw i8, ptr %0, i64 52
  %7 = load i32, ptr %6, align 4
  %8 = icmp eq i32 %7, 0
  %or.cond = select i1 %5, i1 %8, i1 false
  br i1 %or.cond, label %_ZN4llvm12DenseMapBaseINS_8DenseMapIPKN5clang20CXXBindTemporaryExprENS2_8consumed13ConsumedStateENS_12DenseMapInfoIS5_vEENS_6detail12DenseMapPairIS5_S7_EEEES5_S7_S9_SC_E5clearEv.exit, label %9

9:                                                ; preds = %1
  %10 = shl i32 %4, 2
  %11 = getelementptr inbounds nuw i8, ptr %0, i64 56
  %12 = load i32, ptr %11, align 8
  %13 = icmp ult i32 %10, %12
  %14 = icmp ugt i32 %12, 64
  %or.cond.i = and i1 %13, %14
  br i1 %or.cond.i, label %15, label %16

15:                                               ; preds = %9
  tail call void @_ZN4llvm8DenseMapIPKN5clang20CXXBindTemporaryExprENS1_8consumed13ConsumedStateENS_12DenseMapInfoIS4_vEENS_6detail12DenseMapPairIS4_S6_EEE16shrink_and_clearEv(ptr noundef nonnull align 8 dereferenceable(20) %2)
  br label %_ZN4llvm12DenseMapBaseINS_8DenseMapIPKN5clang20CXXBindTemporaryExprENS2_8consumed13ConsumedStateENS_12DenseMapInfoIS5_vEENS_6detail12DenseMapPairIS5_S7_EEEES5_S7_S9_SC_E5clearEv.exit

16:                                               ; preds = %9
  %17 = load ptr, ptr %2, align 8
  %18 = zext i32 %12 to i64
  %19 = getelementptr inbounds nuw %"struct.llvm::detail::DenseMapPair.95", ptr %17, i64 %18
  %.not6.i = icmp eq i32 %12, 0
  br i1 %.not6.i, label %._crit_edge.i, label %.lr.ph.i

.lr.ph.i:                                         ; preds = %16, %.lr.ph.i
  %.07.i = phi ptr [ %20, %.lr.ph.i ], [ %17, %16 ]
  store ptr inttoptr (i64 -4096 to ptr), ptr %.07.i, align 8
  %20 = getelementptr inbounds nuw i8, ptr %.07.i, i64 16
  %.not.i = icmp eq ptr %20, %19
  br i1 %.not.i, label %._crit_edge.i, label %.lr.ph.i, !llvm.loop !109

._crit_edge.i:                                    ; preds = %.lr.ph.i, %16
  store i32 0, ptr %3, align 8
  store i32 0, ptr %6, align 4
  br label %_ZN4llvm12DenseMapBaseINS_8DenseMapIPKN5clang20CXXBindTemporaryExprENS2_8consumed13ConsumedStateENS_12DenseMapInfoIS5_vEENS_6detail12DenseMapPairIS5_S7_EEEES5_S7_S9_SC_E5clearEv.exit

_ZN4llvm12DenseMapBaseINS_8DenseMapIPKN5clang20CXXBindTemporaryExprENS2_8consumed13ConsumedStateENS_12DenseMapInfoIS5_vEENS_6detail12DenseMapPairIS5_S7_EEEES5_S7_S9_SC_E5clearEv.exit: ; preds = %1, %15, %._crit_edge.i
  ret void
}